; Function Attrs: inlinehint mustprogress nofree norecurse nosync nounwind willreturn memory(none) uwtable
define internal noundef zeroext i1 @_ZN14V3RttiInternalL16isClassIdOfOneOfI18OrderVarPostVertexJ14OrderVarVertex17OrderEitherVertex13V3GraphVertexEEEbm9VTypeListIJT_DpT0_EE(i64 noundef %0) #18 {
  %2 = icmp eq i64 %0, ptrtoint (ptr @_ZZN18OrderVarPostVertex11rttiClassIdEvE15aStaticVariable to i64)
  %3 = icmp eq i64 %0, ptrtoint (ptr @_ZZN14OrderVarVertex11rttiClassIdEvE15aStaticVariable to i64)
  %or.cond = or i1 %2, %3
  br i1 %or.cond, label %_ZN14V3RttiInternalL16isClassIdOfOneOfI14OrderVarVertexJ17OrderEitherVertex13V3GraphVertexEEEbm9VTypeListIJT_DpT0_EE.exit, label %4

4:                                                ; preds = %1
  %5 = icmp eq i64 %0, ptrtoint (ptr @_ZZN17OrderEitherVertex11rttiClassIdEvE15aStaticVariable to i64)
  %6 = icmp eq i64 %0, ptrtoint (ptr @_ZZN13V3GraphVertex11rttiClassIdEvE15aStaticVariable to i64)
  %spec.select.i.i = or i1 %5, %6
  br label %_ZN14V3RttiInternalL16isClassIdOfOneOfI14OrderVarVertexJ17OrderEitherVertex13V3GraphVertexEEEbm9VTypeListIJT_DpT0_EE.exit

_ZN14V3RttiInternalL16isClassIdOfOneOfI14OrderVarVertexJ17OrderEitherVertex13V3GraphVertexEEEbm9VTypeListIJT_DpT0_EE.exit: ; preds = %4, %1
  %7 = phi i1 [ true, %1 ], [ %spec.select.i.i, %4 ]
  ret i1 %7
}